target datalayout = "e-m:e-p270:32:32-p271:32:32-p272:64:64-i64:64-i128:128-f80:128-n8:16:32:64-S128"
target triple = "x86_64-pc-linux-gnu"

%struct.redisServer = type { i32, i64, ptr, ptr, ptr, i32, i32, i32, i32, i32, ptr, ptr, ptr, ptr, ptr, i32, i32, i32, i32, i64, i32, i32, i32, i32, ptr, i32, i32, [41 x i8], i32, i64, i32, i32, i32, ptr, ptr, i32, i32, i64, ptr, ptr, ptr, ptr, [2 x i32], i32, i32, i32, i32, i32, i32, [16 x ptr], i32, ptr, ptr, i32, [8 x %struct.connListener], i32, %struct.connListener, ptr, ptr, ptr, ptr, ptr, ptr, ptr, ptr, ptr, ptr, i32, ptr, i32, ptr, [3 x %struct.pause_event], [256 x i8], ptr, i64, i32, i32, [128 x i32], i32, i32, i64, i32, i32, i32, i32, i32, i64, i64, i64, i64, i64, i64, i64, i64, i64, i64, double, i64, i64, i64, i64, i64, i64, i64, i64, i64, i64, i64, i64, i64, i64, i64, i64, i64, i64, i64, i64, i64, double, i64, i64, i64, i64, i64, ptr, i64, i64, i64, %struct.malloc_stats, i64, i64, i64, i64, i64, i64, i64, i64, i64, i64, i64, i64, double, [4 x i64], i64, i64, i64, i64, [128 x i64], [128 x i64], i64, i64, [7 x %struct.anon], i64, i64, i64, i64, i64, i64, [4 x %struct.durationStats], i32, i32, i32, i32, i32, i32, i32, i32, i32, i32, i32, i32, i64, i32, i32, i32, i32, i64, i64, i32, i32, i32, i32, i32, ptr, [3 x %struct.clientBufferLimitsConfig], i32, i32, i32, ptr, i32, i32, i32, i32, i32, i32, ptr, ptr, i32, i32, i64, i64, i64, i64, i64, i32, i32, ptr, i32, i32, i64, i64, i64, i64, i64, i32, i32, i64, i32, i32, i32, i32, i32, i32, i32, i32, ptr, i32, i64, i64, i64, i64, i32, ptr, i32, ptr, i32, i32, i32, i64, i64, i64, i64, i32, i32, i32, i32, i32, i32, ptr, i32, i32, ptr, i32, i32, i32, [2 x i32], i32, %struct.redisOpArray, i32, ptr, i32, ptr, i32, i32, i32, i32, i32, i32, i32, [41 x i8], [41 x i8], i64, i64, i64, i64, i32, i32, ptr, i64, i64, %struct.replDataBuf, i64, i64, i32, i32, i32, i32, i32, i32, i32, i32, i32, i64, ptr, i64, ptr, ptr, ptr, i32, i32, ptr, ptr, i32, i32, i32, i64, i64, i64, i64, ptr, ptr, i32, ptr, i64, i32, i32, i32, i64, i32, i32, i32, i32, ptr, i32, i32, [41 x i8], i64, i32, ptr, i32, i32, i64, i64, i32, i32, i32, i32, i32, i64, [3 x i32], i32, i32, i32, [10 x i32], ptr, ptr, i32, i64, ptr, ptr, i32, i32, i32, i32, i64, i64, i64, i64, i64, i64, i64, i64, i64, i64, i32, i32, i64, i64, i32, i64, i64, i64, i64, i64, ptr, ptr, i32, ptr, i32, i32, i32, i32, i64, i64, ptr, ptr, i32, i32, i32, i32, i32, ptr, ptr, ptr, i32, i32, i32, i32, i32, i32, i32, i64, i32, i32, i64, i32, i32, i32, i32, i32, i32, i32, i64, ptr, ptr, i64, ptr, i32, %struct.aclInfo, i32, i64, i32, i32, i32, %struct.redisTLSContextConfig, ptr, ptr, ptr, ptr, ptr, i64, i32, ptr, i32, i32, i32, i64, i32, ptr }
%struct.connListener = type { [16 x i32], i32, ptr, i32, i32, ptr, ptr }
%struct.pause_event = type { i32, i64 }
%struct.malloc_stats = type { i64, i64, i64, i64, i64, i64, i64, i64, i64, i64, i64 }
%struct.anon = type { i64, i64, [16 x i64], i32 }
%struct.durationStats = type { i64, i64, i64 }
%struct.clientBufferLimitsConfig = type { i64, i64, i64 }
%struct.redisOpArray = type { ptr, i32, i32 }
%struct.replDataBuf = type { ptr, i64, i64, i64, i64 }
%struct.aclInfo = type { i64, i64, i64, i64 }
%struct.redisTLSContextConfig = type { ptr, ptr, ptr, ptr, ptr, ptr, ptr, ptr, ptr, ptr, ptr, ptr, i32, i32, i32, i32 }
%struct.redisDb = type { ptr, ptr, ptr, ptr, ptr, ptr, ptr, i32, i64, i64, ptr }
%struct.client = type { i64, i64, ptr, i8, i8, i8, i8, i32, ptr, ptr, ptr, ptr, ptr, i64, i64, i32, ptr, i32, i32, ptr, i64, ptr, ptr, ptr, ptr, ptr, i32, i32, i64, ptr, i64, ptr, i64, i64, i64, i32, ptr, i64, i64, i32, i32, i32, i32, i64, i64, ptr, i64, i64, i64, i64, i64, i64, i64, i64, [41 x i8], i32, ptr, i32, i32, i64, %struct.multiState, %struct.blockingState, i64, ptr, ptr, ptr, ptr, ptr, ptr, ptr, ptr, ptr, ptr, ptr, ptr, ptr, ptr, i64, ptr, i64, i32, ptr, ptr, ptr, i64, %struct.listNode, i64, i64, i32, i64, ptr }
%struct.multiState = type { ptr, i32, i32, i32, i64, i32 }
%struct.blockingState = type { i32, i64, i32, ptr, i32, i32, i64, ptr, ptr, i64 }
%struct.listNode = type { ptr, ptr, ptr }

@server = external global %struct.redisServer, align 8
@.str.8 = private unnamed_addr constant [4 x i8] c"del\00", align 1

; Function Attrs: nounwind uwtable
define dso_local void @signalModifiedKey(ptr noundef %0, ptr noundef %1, ptr noundef %2) #0 {
  %4 = alloca ptr, align 8
  %5 = alloca ptr, align 8
  %6 = alloca ptr, align 8
  store ptr %0, ptr %4, align 8, !tbaa !76
  store ptr %1, ptr %5, align 8, !tbaa !12
  store ptr %2, ptr %6, align 8, !tbaa !5
  %7 = load ptr, ptr %5, align 8, !tbaa !12
  %8 = load ptr, ptr %6, align 8, !tbaa !5
  call void @touchWatchedKey(ptr noundef %7, ptr noundef %8)
  %9 = load ptr, ptr %4, align 8, !tbaa !76
  %10 = load ptr, ptr %6, align 8, !tbaa !5
  call void @trackingInvalidateKey(ptr noundef %9, ptr noundef %10, i32 noundef 1)
  ret void
}

; Function Attrs: nounwind uwtable
define dso_local i32 @dbSyncDelete(ptr noundef %0, ptr noundef %1) #0 {
  %3 = alloca ptr, align 8
  %4 = alloca ptr, align 8
  store ptr %0, ptr %3, align 8, !tbaa !12
  store ptr %1, ptr %4, align 8, !tbaa !5
  %5 = load ptr, ptr %3, align 8, !tbaa !12
  %6 = load ptr, ptr %4, align 8, !tbaa !5
  %7 = call i32 @dbGenericDelete(ptr noundef %5, ptr noundef %6, i32 noundef 0, i32 noundef 1)
  ret i32 %7
}

; Function Attrs: nounwind uwtable
define dso_local i32 @dbAsyncDelete(ptr noundef %0, ptr noundef %1) #0 {
  %3 = alloca ptr, align 8
  %4 = alloca ptr, align 8
  store ptr %0, ptr %3, align 8, !tbaa !12
  store ptr %1, ptr %4, align 8, !tbaa !5
  %5 = load ptr, ptr %3, align 8, !tbaa !12
  %6 = load ptr, ptr %4, align 8, !tbaa !5
  %7 = call i32 @dbGenericDelete(ptr noundef %5, ptr noundef %6, i32 noundef 1, i32 noundef 1)
  ret i32 %7
}

; Function Attrs: nounwind uwtable
define dso_local void @delGenericCommand(ptr noundef %0, i32 noundef %1) #0 {
  %3 = alloca ptr, align 8
  %4 = alloca i32, align 4
  %5 = alloca i32, align 4
  %6 = alloca i32, align 4
  %7 = alloca i32, align 4
  store ptr %0, ptr %3, align 8, !tbaa !76
  store i32 %1, ptr %4, align 4, !tbaa !14
  call void @llvm.lifetime.start.p0(i64 4, ptr %5) #15
  store i32 0, ptr %5, align 4, !tbaa !14
  call void @llvm.lifetime.start.p0(i64 4, ptr %6) #15
  store i32 1, ptr %6, align 4, !tbaa !14
  br label %8

8:                                                ; preds = %88, %2
  %9 = load i32, ptr %6, align 4, !tbaa !14
  %10 = load ptr, ptr %3, align 8, !tbaa !76
  %11 = getelementptr inbounds nuw %struct.client, ptr %10, i32 0, i32 15
  %12 = load i32, ptr %11, align 8, !tbaa !111
  %13 = icmp slt i32 %9, %12
  br i1 %13, label %14, label %91

14:                                               ; preds = %8
  %15 = load ptr, ptr %3, align 8, !tbaa !76
  %16 = getelementptr inbounds nuw %struct.client, ptr %15, i32 0, i32 8
  %17 = load ptr, ptr %16, align 8, !tbaa !77
  %18 = load ptr, ptr %3, align 8, !tbaa !76
  %19 = getelementptr inbounds nuw %struct.client, ptr %18, i32 0, i32 16
  %20 = load ptr, ptr %19, align 8, !tbaa !112
  %21 = load i32, ptr %6, align 4, !tbaa !14
  %22 = sext i32 %21 to i64
  %23 = getelementptr inbounds ptr, ptr %20, i64 %22
  %24 = load ptr, ptr %23, align 8, !tbaa !5
  %25 = call i32 @expireIfNeeded(ptr noundef %17, ptr noundef %24, i32 noundef 0)
  %26 = icmp eq i32 %25, 2
  br i1 %26, label %27, label %28

27:                                               ; preds = %14
  br label %88

28:                                               ; preds = %14
  call void @llvm.lifetime.start.p0(i64 4, ptr %7) #15
  %29 = load i32, ptr %4, align 4, !tbaa !14
  %30 = icmp ne i32 %29, 0
  br i1 %30, label %31, label %43

31:                                               ; preds = %28
  %32 = load ptr, ptr %3, align 8, !tbaa !76
  %33 = getelementptr inbounds nuw %struct.client, ptr %32, i32 0, i32 8
  %34 = load ptr, ptr %33, align 8, !tbaa !77
  %35 = load ptr, ptr %3, align 8, !tbaa !76
  %36 = getelementptr inbounds nuw %struct.client, ptr %35, i32 0, i32 16
  %37 = load ptr, ptr %36, align 8, !tbaa !112
  %38 = load i32, ptr %6, align 4, !tbaa !14
  %39 = sext i32 %38 to i64
  %40 = getelementptr inbounds ptr, ptr %37, i64 %39
  %41 = load ptr, ptr %40, align 8, !tbaa !5
  %42 = call i32 @dbAsyncDelete(ptr noundef %34, ptr noundef %41)
  br label %55

43:                                               ; preds = %28
  %44 = load ptr, ptr %3, align 8, !tbaa !76
  %45 = getelementptr inbounds nuw %struct.client, ptr %44, i32 0, i32 8
  %46 = load ptr, ptr %45, align 8, !tbaa !77
  %47 = load ptr, ptr %3, align 8, !tbaa !76
  %48 = getelementptr inbounds nuw %struct.client, ptr %47, i32 0, i32 16
  %49 = load ptr, ptr %48, align 8, !tbaa !112
  %50 = load i32, ptr %6, align 4, !tbaa !14
  %51 = sext i32 %50 to i64
  %52 = getelementptr inbounds ptr, ptr %49, i64 %51
  %53 = load ptr, ptr %52, align 8, !tbaa !5
  %54 = call i32 @dbSyncDelete(ptr noundef %46, ptr noundef %53)
  br label %55

55:                                               ; preds = %43, %31
  %56 = phi i32 [ %42, %31 ], [ %54, %43 ]
  store i32 %56, ptr %7, align 4, !tbaa !14
  %57 = load i32, ptr %7, align 4, !tbaa !14
  %58 = icmp ne i32 %57, 0
  br i1 %58, label %59, label %87

59:                                               ; preds = %55
  %60 = load ptr, ptr %3, align 8, !tbaa !76
  %61 = load ptr, ptr %3, align 8, !tbaa !76
  %62 = getelementptr inbounds nuw %struct.client, ptr %61, i32 0, i32 8
  %63 = load ptr, ptr %62, align 8, !tbaa !77
  %64 = load ptr, ptr %3, align 8, !tbaa !76
  %65 = getelementptr inbounds nuw %struct.client, ptr %64, i32 0, i32 16
  %66 = load ptr, ptr %65, align 8, !tbaa !112
  %67 = load i32, ptr %6, align 4, !tbaa !14
  %68 = sext i32 %67 to i64
  %69 = getelementptr inbounds ptr, ptr %66, i64 %68
  %70 = load ptr, ptr %69, align 8, !tbaa !5
  call void @signalModifiedKey(ptr noundef %60, ptr noundef %63, ptr noundef %70)
  %71 = load ptr, ptr %3, align 8, !tbaa !76
  %72 = getelementptr inbounds nuw %struct.client, ptr %71, i32 0, i32 16
  %73 = load ptr, ptr %72, align 8, !tbaa !112
  %74 = load i32, ptr %6, align 4, !tbaa !14
  %75 = sext i32 %74 to i64
  %76 = getelementptr inbounds ptr, ptr %73, i64 %75
  %77 = load ptr, ptr %76, align 8, !tbaa !5
  %78 = load ptr, ptr %3, align 8, !tbaa !76
  %79 = getelementptr inbounds nuw %struct.client, ptr %78, i32 0, i32 8
  %80 = load ptr, ptr %79, align 8, !tbaa !77
  %81 = getelementptr inbounds nuw %struct.redisDb, ptr %80, i32 0, i32 7
  %82 = load i32, ptr %81, align 8, !tbaa !73
  call void @notifyKeyspaceEvent(i32 noundef 4, ptr noundef @.str.8, ptr noundef %77, i32 noundef %82)
  %83 = load i64, ptr getelementptr inbounds nuw (%struct.redisServer, ptr @server, i32 0, i32 227), align 8, !tbaa !116
  %84 = add nsw i64 %83, 1
  store i64 %84, ptr getelementptr inbounds nuw (%struct.redisServer, ptr @server, i32 0, i32 227), align 8, !tbaa !116
  %85 = load i32, ptr %5, align 4, !tbaa !14
  %86 = add nsw i32 %85, 1
  store i32 %86, ptr %5, align 4, !tbaa !14
  br label %87

87:                                               ; preds = %59, %55
  call void @llvm.lifetime.end.p0(i64 4, ptr %7) #15
  br label %88

88:                                               ; preds = %87, %27
  %89 = load i32, ptr %6, align 4, !tbaa !14
  %90 = add nsw i32 %89, 1
  store i32 %90, ptr %6, align 4, !tbaa !14
  br label %8, !llvm.loop !130

91:                                               ; preds = %8
  %92 = load ptr, ptr %3, align 8, !tbaa !76
  %93 = load i32, ptr %5, align 4, !tbaa !14
  %94 = sext i32 %93 to i64
  call void @addReplyLongLong(ptr noundef %92, i64 noundef %94)
  call void @llvm.lifetime.end.p0(i64 4, ptr %6) #15
  call void @llvm.lifetime.end.p0(i64 4, ptr %5) #15
  ret void
}