; Function Attrs: nounwind uwtable
define dso_local void @delGenericCommand(ptr noundef %0, i32 noundef %1) local_unnamed_addr #0 {
  %3 = getelementptr inbounds nuw i8, ptr %0, i64 88
  %4 = load i32, ptr %3, align 8, !tbaa !103
  %5 = icmp sgt i32 %4, 1
  br i1 %5, label %.lr.ph, label %._crit_edge

.lr.ph:                                           ; preds = %2
  %6 = getelementptr inbounds nuw i8, ptr %0, i64 32
  %7 = getelementptr inbounds nuw i8, ptr %0, i64 96
  %.not = icmp eq i32 %1, 0
  br i1 %.not, label %.lr.ph.split.us, label %.lr.ph.split

.lr.ph.split.us:                                  ; preds = %.lr.ph, %34
  %indvars.iv29 = phi i64 [ %indvars.iv.next30, %34 ], [ 1, %.lr.ph ]
  %.026.us = phi i32 [ %.1.us, %34 ], [ 0, %.lr.ph ]
  %8 = load ptr, ptr %6, align 8, !tbaa !74
  %9 = load ptr, ptr %7, align 8, !tbaa !104
  %10 = getelementptr inbounds nuw ptr, ptr %9, i64 %indvars.iv29
  %11 = load ptr, ptr %10, align 8, !tbaa !105
  %12 = tail call i32 @expireIfNeeded(ptr noundef %8, ptr noundef %11, i32 noundef 0)
  %13 = icmp eq i32 %12, 2
  br i1 %13, label %34, label %14

14:                                               ; preds = %.lr.ph.split.us
  %15 = load ptr, ptr %6, align 8, !tbaa !74
  %16 = load ptr, ptr %7, align 8, !tbaa !104
  %17 = getelementptr inbounds nuw ptr, ptr %16, i64 %indvars.iv29
  %18 = load ptr, ptr %17, align 8, !tbaa !105
  %19 = tail call range(i32 0, 2) i32 @dbGenericDelete(ptr noundef %15, ptr noundef %18, i32 noundef 0, i32 noundef 1)
  %.not24.us = icmp eq i32 %19, 0
  br i1 %.not24.us, label %34, label %20

20:                                               ; preds = %14
  %21 = load ptr, ptr %6, align 8, !tbaa !74
  %22 = load ptr, ptr %7, align 8, !tbaa !104
  %23 = getelementptr inbounds nuw ptr, ptr %22, i64 %indvars.iv29
  %24 = load ptr, ptr %23, align 8, !tbaa !105
  tail call void @touchWatchedKey(ptr noundef %21, ptr noundef %24) #20
  tail call void @trackingInvalidateKey(ptr noundef nonnull %0, ptr noundef %24, i32 noundef 1) #20
  %25 = load ptr, ptr %7, align 8, !tbaa !104
  %26 = getelementptr inbounds nuw ptr, ptr %25, i64 %indvars.iv29
  %27 = load ptr, ptr %26, align 8, !tbaa !105
  %28 = load ptr, ptr %6, align 8, !tbaa !74
  %29 = getelementptr inbounds nuw i8, ptr %28, i64 56
  %30 = load i32, ptr %29, align 8, !tbaa !67
  tail call void @notifyKeyspaceEvent(i32 noundef 4, ptr noundef nonnull @.str.8, ptr noundef %27, i32 noundef %30) #20
  %31 = load i64, ptr getelementptr inbounds nuw (i8, ptr @server, i64 6720), align 8, !tbaa !109
  %32 = add nsw i64 %31, 1
  store i64 %32, ptr getelementptr inbounds nuw (i8, ptr @server, i64 6720), align 8, !tbaa !109
  %33 = add nsw i32 %.026.us, 1
  br label %34

34:                                               ; preds = %20, %14, %.lr.ph.split.us
  %.1.us = phi i32 [ %.026.us, %.lr.ph.split.us ], [ %33, %20 ], [ %.026.us, %14 ]
  %indvars.iv.next30 = add nuw nsw i64 %indvars.iv29, 1
  %35 = load i32, ptr %3, align 8, !tbaa !103
  %36 = sext i32 %35 to i64
  %37 = icmp slt i64 %indvars.iv.next30, %36
  br i1 %37, label %.lr.ph.split.us, label %._crit_edge, !llvm.loop !118

.lr.ph.split:                                     ; preds = %.lr.ph, %64
  %indvars.iv = phi i64 [ %indvars.iv.next, %64 ], [ 1, %.lr.ph ]
  %.026 = phi i32 [ %.1, %64 ], [ 0, %.lr.ph ]
  %38 = load ptr, ptr %6, align 8, !tbaa !74
  %39 = load ptr, ptr %7, align 8, !tbaa !104
  %40 = getelementptr inbounds nuw ptr, ptr %39, i64 %indvars.iv
  %41 = load ptr, ptr %40, align 8, !tbaa !105
  %42 = tail call i32 @expireIfNeeded(ptr noundef %38, ptr noundef %41, i32 noundef 0)
  %43 = icmp eq i32 %42, 2
  br i1 %43, label %64, label %44

44:                                               ; preds = %.lr.ph.split
  %45 = load ptr, ptr %6, align 8, !tbaa !74
  %46 = load ptr, ptr %7, align 8, !tbaa !104
  %47 = getelementptr inbounds nuw ptr, ptr %46, i64 %indvars.iv
  %48 = load ptr, ptr %47, align 8, !tbaa !105
  %49 = tail call range(i32 0, 2) i32 @dbGenericDelete(ptr noundef %45, ptr noundef %48, i32 noundef 1, i32 noundef 1)
  %.not24 = icmp eq i32 %49, 0
  br i1 %.not24, label %64, label %50

50:                                               ; preds = %44
  %51 = load ptr, ptr %6, align 8, !tbaa !74
  %52 = load ptr, ptr %7, align 8, !tbaa !104
  %53 = getelementptr inbounds nuw ptr, ptr %52, i64 %indvars.iv
  %54 = load ptr, ptr %53, align 8, !tbaa !105
  tail call void @touchWatchedKey(ptr noundef %51, ptr noundef %54) #20
  tail call void @trackingInvalidateKey(ptr noundef nonnull %0, ptr noundef %54, i32 noundef 1) #20
  %55 = load ptr, ptr %7, align 8, !tbaa !104
  %56 = getelementptr inbounds nuw ptr, ptr %55, i64 %indvars.iv
  %57 = load ptr, ptr %56, align 8, !tbaa !105
  %58 = load ptr, ptr %6, align 8, !tbaa !74
  %59 = getelementptr inbounds nuw i8, ptr %58, i64 56
  %60 = load i32, ptr %59, align 8, !tbaa !67
  tail call void @notifyKeyspaceEvent(i32 noundef 4, ptr noundef nonnull @.str.8, ptr noundef %57, i32 noundef %60) #20
  %61 = load i64, ptr getelementptr inbounds nuw (i8, ptr @server, i64 6720), align 8, !tbaa !109
  %62 = add nsw i64 %61, 1
  store i64 %62, ptr getelementptr inbounds nuw (i8, ptr @server, i64 6720), align 8, !tbaa !109
  %63 = add nsw i32 %.026, 1
  br label %64

64:                                               ; preds = %44, %50, %.lr.ph.split
  %.1 = phi i32 [ %.026, %.lr.ph.split ], [ %63, %50 ], [ %.026, %44 ]
  %indvars.iv.next = add nuw nsw i64 %indvars.iv, 1
  %65 = load i32, ptr %3, align 8, !tbaa !103
  %66 = sext i32 %65 to i64
  %67 = icmp slt i64 %indvars.iv.next, %66
  br i1 %67, label %.lr.ph.split, label %._crit_edge, !llvm.loop !118

._crit_edge:                                      ; preds = %64, %34, %2
  %.0.lcssa = phi i32 [ 0, %2 ], [ %.1.us, %34 ], [ %.1, %64 ]
  %68 = sext i32 %.0.lcssa to i64
  tail call void @addReplyLongLong(ptr noundef nonnull %0, i64 noundef %68) #20
  ret void
}